; Function Attrs: mustprogress nounwind uwtable
define internal fastcc void @"_ZN5folly6detail14ScopeGuardImplIZNS_11compression4zlib12_GLOBAL__N_115ZlibStreamCodec18doUncompressStreamERNS_5RangeIPKhEERNS6_IPhEENS2_11StreamCodec7FlushOpEE3$_0Lb1EED2Ev"(ptr noundef nonnull readonly align 8 captures(none) dereferenceable(32) %0) unnamed_addr #10 align 2 personality ptr @__gxx_personality_v0 {
  %2 = load i8, ptr %0, align 8, !tbaa !116, !range !57, !noundef !58
  %3 = trunc nuw i8 %2 to i1
  br i1 %3, label %43, label %4

4:                                                ; preds = %1
  %5 = getelementptr inbounds nuw i8, ptr %0, i64 8
  %6 = getelementptr inbounds nuw i8, ptr %0, i64 16
  %7 = load ptr, ptr %6, align 8, !tbaa !142
  %8 = load ptr, ptr %5, align 8, !tbaa !144
  %9 = load ptr, ptr %8, align 8, !tbaa !107
  %10 = getelementptr inbounds nuw i8, ptr %7, i64 304
  %11 = load i8, ptr %10, align 8, !tbaa !56, !range !57, !noundef !58
  %12 = trunc nuw i8 %11 to i1
  br i1 %12, label %_ZN5folly8OptionalI10z_stream_sEptEv.exit.i.i, label %13

13:                                               ; preds = %4
  invoke void @_ZN5folly6detail16throw_exception_INS_22OptionalEmptyExceptionEJEEEvDpT0_() #9
          to label %.noexc.i.i unwind label %38

.noexc.i.i:                                       ; preds = %13
  unreachable

_ZN5folly8OptionalI10z_stream_sEptEv.exit.i.i:    ; preds = %4
  %14 = getelementptr inbounds nuw i8, ptr %8, i64 8
  %15 = load ptr, ptr %14, align 8, !tbaa !111
  %16 = ptrtoint ptr %15 to i64
  %17 = ptrtoint ptr %9 to i64
  %18 = sub i64 %16, %17
  %19 = getelementptr inbounds nuw i8, ptr %7, i64 200
  %20 = load i32, ptr %19, align 8, !tbaa !112
  %21 = zext i32 %20 to i64
  %22 = icmp ult i64 %18, %21
  br i1 %22, label %.invoke.i.i, label %23, !prof !101

23:                                               ; preds = %_ZN5folly8OptionalI10z_stream_sEptEv.exit.i.i
  %24 = sub nuw i64 %18, %21
  %25 = getelementptr inbounds nuw i8, ptr %9, i64 %24
  store ptr %25, ptr %8, align 8, !tbaa !107
  %26 = getelementptr inbounds nuw i8, ptr %0, i64 24
  %27 = load ptr, ptr %26, align 8, !tbaa !145
  %28 = getelementptr inbounds nuw i8, ptr %27, i64 8
  %29 = load ptr, ptr %28, align 8, !tbaa !114
  %30 = load ptr, ptr %27, align 8, !tbaa !105
  %31 = ptrtoint ptr %29 to i64
  %32 = ptrtoint ptr %30 to i64
  %33 = sub i64 %31, %32
  %34 = getelementptr inbounds nuw i8, ptr %7, i64 224
  %35 = load i32, ptr %34, align 8, !tbaa !115
  %36 = zext i32 %35 to i64
  %37 = icmp ult i64 %33, %36
  br i1 %37, label %.invoke.i.i, label %"_ZN5folly6detail14ScopeGuardImplIZNS_11compression4zlib12_GLOBAL__N_115ZlibStreamCodec18doUncompressStreamERNS_5RangeIPKhEERNS6_IPhEENS2_11StreamCodec7FlushOpEE3$_0Lb1EE7executeEv.exit", !prof !101

.invoke.i.i:                                      ; preds = %23, %_ZN5folly8OptionalI10z_stream_sEptEv.exit.i.i
  invoke void @_ZN5folly6detail16throw_exception_ISt12out_of_rangeJPKcEEEvDpT0_(ptr noundef nonnull @.str.28) #9
          to label %.cont.i.i unwind label %38

.cont.i.i:                                        ; preds = %.invoke.i.i
  unreachable

38:                                               ; preds = %.invoke.i.i, %13
  %39 = landingpad { ptr, i32 }
          catch ptr null
  %40 = extractvalue { ptr, i32 } %39, 0
  tail call void @__clang_call_terminate(ptr %40) #28
  unreachable

"_ZN5folly6detail14ScopeGuardImplIZNS_11compression4zlib12_GLOBAL__N_115ZlibStreamCodec18doUncompressStreamERNS_5RangeIPKhEERNS6_IPhEENS2_11StreamCodec7FlushOpEE3$_0Lb1EE7executeEv.exit": ; preds = %23
  %41 = sub nuw i64 %33, %36
  %42 = getelementptr inbounds nuw i8, ptr %30, i64 %41
  store ptr %42, ptr %27, align 8, !tbaa !105
  br label %43

43:                                               ; preds = %"_ZN5folly6detail14ScopeGuardImplIZNS_11compression4zlib12_GLOBAL__N_115ZlibStreamCodec18doUncompressStreamERNS_5RangeIPKhEERNS6_IPhEENS2_11StreamCodec7FlushOpEE3$_0Lb1EE7executeEv.exit", %1
  ret void
}